target datalayout = "e-m:e-p270:32:32-p271:32:32-p272:64:64-i64:64-i128:128-f80:128-n8:16:32:64-S128"
target triple = "x86_64-pc-linux-gnu"

; Function Attrs: mustprogress uwtable
define void @dstevr_(ptr noundef %0, ptr noundef %1, ptr noundef %2, ptr noundef %3, ptr noundef %4, ptr noundef %5, ptr noundef %6, ptr noundef %7, ptr noundef %8, ptr noundef %9, ptr noundef %10, ptr noundef %11, ptr noundef %12, ptr noundef %13, ptr noundef %14, ptr noundef %15, ptr noundef %16, ptr noundef %17, ptr noundef %18, ptr noundef %19) #0 {
  %21 = alloca ptr, align 8
  %22 = alloca ptr, align 8
  %23 = alloca ptr, align 8
  %24 = alloca ptr, align 8
  %25 = alloca ptr, align 8
  %26 = alloca ptr, align 8
  %27 = alloca ptr, align 8
  %28 = alloca ptr, align 8
  %29 = alloca ptr, align 8
  %30 = alloca ptr, align 8
  %31 = alloca ptr, align 8
  %32 = alloca ptr, align 8
  %33 = alloca ptr, align 8
  %34 = alloca ptr, align 8
  %35 = alloca ptr, align 8
  %36 = alloca ptr, align 8
  %37 = alloca ptr, align 8
  %38 = alloca ptr, align 8
  %39 = alloca ptr, align 8
  %40 = alloca ptr, align 8
  store ptr %0, ptr %21, align 8
  store ptr %1, ptr %22, align 8
  store ptr %2, ptr %23, align 8
  store ptr %3, ptr %24, align 8
  store ptr %4, ptr %25, align 8
  store ptr %5, ptr %26, align 8
  store ptr %6, ptr %27, align 8
  store ptr %7, ptr %28, align 8
  store ptr %8, ptr %29, align 8
  store ptr %9, ptr %30, align 8
  store ptr %10, ptr %31, align 8
  store ptr %11, ptr %32, align 8
  store ptr %12, ptr %33, align 8
  store ptr %13, ptr %34, align 8
  store ptr %14, ptr %35, align 8
  store ptr %15, ptr %36, align 8
  store ptr %16, ptr %37, align 8
  store ptr %17, ptr %38, align 8
  store ptr %18, ptr %39, align 8
  store ptr %19, ptr %40, align 8
  %41 = load ptr, ptr %21, align 8
  %42 = load ptr, ptr %22, align 8
  %43 = load ptr, ptr %23, align 8
  %44 = load ptr, ptr %24, align 8
  %45 = load ptr, ptr %25, align 8
  %46 = load ptr, ptr %26, align 8
  %47 = load ptr, ptr %27, align 8
  %48 = load ptr, ptr %28, align 8
  %49 = load ptr, ptr %29, align 8
  %50 = load ptr, ptr %30, align 8
  %51 = load ptr, ptr %31, align 8
  %52 = load ptr, ptr %32, align 8
  %53 = load ptr, ptr %33, align 8
  %54 = load ptr, ptr %34, align 8
  %55 = load ptr, ptr %35, align 8
  %56 = load ptr, ptr %36, align 8
  %57 = load ptr, ptr %37, align 8
  %58 = load ptr, ptr %38, align 8
  %59 = load ptr, ptr %39, align 8
  %60 = load ptr, ptr %40, align 8
  call void @dstegr_(ptr noundef %41, ptr noundef %42, ptr noundef %43, ptr noundef %44, ptr noundef %45, ptr noundef %46, ptr noundef %47, ptr noundef %48, ptr noundef %49, ptr noundef %50, ptr noundef %51, ptr noundef %52, ptr noundef %53, ptr noundef %54, ptr noundef %55, ptr noundef %56, ptr noundef %57, ptr noundef %58, ptr noundef %59, ptr noundef %60)
  ret void
}

declare void @dstegr_(ptr noundef, ptr noundef, ptr noundef, ptr noundef, ptr noundef, ptr noundef, ptr noundef, ptr noundef, ptr noundef, ptr noundef, ptr noundef, ptr noundef, ptr noundef, ptr noundef, ptr noundef, ptr noundef, ptr noundef, ptr noundef, ptr noundef, ptr noundef) #1


!llvm.module.flags = !{!0, !1, !2, !3}

!0 = !{i32 1, !"wchar_size", i32 4}
!1 = !{i32 8, !"PIC Level", i32 2}
!2 = !{i32 7, !"uwtable", i32 2}
!3 = !{i32 7, !"frame-pointer", i32 2}
